(dp1
S'map_list_service'
p2
ccopy_reg
_reconstructor
p3
(ctwisted.plugin
CachedDropin
p4
c__builtin__
object
p5
Ntp6
Rp7
(dp8
S'moduleName'
p9
S'twisted.plugins.map_list_service'
p10
sS'description'
p11
NsS'plugins'
p12
(lp13
g3
(ctwisted.plugin
CachedPlugin
p14
g5
Ntp15
Rp16
(dp17
S'dropin'
p18
g7
sS'name'
p19
S'serviceMaker'
p20
sg11
NsS'provided'
p21
(lp22
ctwisted.plugin
IPlugin
p23
actwisted.application.service
IServiceMaker
p24
asbasbs.